target datalayout = "e-m:e-p270:32:32-p271:32:32-p272:64:64-i64:64-i128:128-f80:128-n8:16:32:64-S128"
target triple = "x86_64-pc-linux-gnu"

%struct.ImRect = type { %struct.ImVec2, %struct.ImVec2 }
%struct.ImVec2 = type { float, float }
%struct.ImGuiTextBuffer = type { %struct.ImVector.28 }
%struct.ImVector.28 = type { i32, i32, ptr }
%struct.ImGuiTableInstanceData = type { i32, float, float, float, i32, i32 }
%struct.ImGuiTableColumn = type <{ i32, float, float, float, float, float, float, float, float, %struct.ImRect, i32, float, float, float, float, float, float, float, i16, i16, i16, i16, i16, i16, i16, i16, i16, i8, i8, i8, i8, i8, i8, i8, i8, i8, i8, i8, i8, i8, i8 }>
%struct.ImGuiTable = type <{ i32, i32, ptr, ptr, %struct.ImSpan, %struct.ImSpan.41, %struct.ImSpan.42, ptr, ptr, ptr, i32, i32, i32, i32, i32, i32, i16, i16, float, float, float, float, float, float, i32, i32, [2 x i32], i32, i32, float, float, float, float, float, float, float, float, float, float, float, float, float, float, float, float, float, %struct.ImRect, %struct.ImRect, %struct.ImRect, %struct.ImRect, %struct.ImRect, %struct.ImRect, %struct.ImRect, %struct.ImRect, %struct.ImRect, ptr, ptr, %struct.ImGuiTextBuffer, ptr, %struct.ImGuiTableInstanceData, %struct.ImVector.43, %struct.ImGuiTableColumnSortSpecs, [4 x i8], %struct.ImVector.44, %struct.ImGuiTableSortSpecs, i16, i16, i16, i16, i16, i16, i16, i16, i16, i16, i16, i16, i16, i16, i16, i16, i16, i16, i16, i16, i16, i16, i16, i16, i16, i16, i16, i8, i8, i8, i8, i8, i8, i8, i8, i8, i8, i8, i8, i8, i8, i8, i8, i8, i8, i8, i8, [6 x i8] }>
%struct.ImSpan = type { ptr, ptr }
%struct.ImSpan.41 = type { ptr, ptr }
%struct.ImSpan.42 = type { ptr, ptr }
%struct.ImVector.43 = type { i32, i32, ptr }
%struct.ImGuiTableColumnSortSpecs = type <{ i32, i16, i16, i8, [3 x i8] }>
%struct.ImVector.44 = type { i32, i32, ptr }
%struct.ImGuiTableSortSpecs = type <{ ptr, i32, i8, [3 x i8] }>

; Function Attrs: inlinehint mustprogress nounwind uwtable
define linkonce_odr dso_local noundef nonnull align 4 dereferenceable(115) ptr @_ZN6ImSpanI16ImGuiTableColumnEixEi(ptr noundef nonnull align 8 dereferenceable(16) %0, i32 noundef %1) #4 comdat align 2 {
  %3 = alloca ptr, align 8
  %4 = alloca i32, align 4
  %5 = alloca ptr, align 8
  store ptr %0, ptr %3, align 8, !tbaa !335
  store i32 %1, ptr %4, align 4, !tbaa !4
  %6 = load ptr, ptr %3, align 8
  call void @llvm.lifetime.start.p0(i64 8, ptr %5) #8
  %7 = getelementptr inbounds nuw %struct.ImSpan, ptr %6, i32 0, i32 0
  %8 = load ptr, ptr %7, align 8, !tbaa !338
  %9 = load i32, ptr %4, align 4, !tbaa !4
  %10 = sext i32 %9 to i64
  %11 = getelementptr inbounds %struct.ImGuiTableColumn, ptr %8, i64 %10
  store ptr %11, ptr %5, align 8, !tbaa !259
  %12 = load ptr, ptr %5, align 8, !tbaa !259
  call void @llvm.lifetime.end.p0(i64 8, ptr %5) #8
  ret ptr %12
}

; Function Attrs: mustprogress uwtable
define dso_local void @_ZN5ImGui26TableSetColumnWidthAutoAllEP10ImGuiTable(ptr noundef %0) #0 {
  %2 = alloca ptr, align 8
  %3 = alloca i32, align 4
  %4 = alloca i32, align 4
  %5 = alloca ptr, align 8
  store ptr %0, ptr %2, align 8, !tbaa !166
  call void @llvm.lifetime.start.p0(i64 4, ptr %3) #8
  store i32 0, ptr %3, align 4, !tbaa !4
  br label %6

6:                                                ; preds = %37, %1
  %7 = load i32, ptr %3, align 4, !tbaa !4
  %8 = load ptr, ptr %2, align 8, !tbaa !166
  %9 = getelementptr inbounds nuw %struct.ImGuiTable, ptr %8, i32 0, i32 13
  %10 = load i32, ptr %9, align 4, !tbaa !199
  %11 = icmp slt i32 %7, %10
  br i1 %11, label %13, label %12

12:                                               ; preds = %6
  store i32 2, ptr %4, align 4
  call void @llvm.lifetime.end.p0(i64 4, ptr %3) #8
  br label %40

13:                                               ; preds = %6
  call void @llvm.lifetime.start.p0(i64 8, ptr %5) #8
  %14 = load ptr, ptr %2, align 8, !tbaa !166
  %15 = getelementptr inbounds nuw %struct.ImGuiTable, ptr %14, i32 0, i32 4
  %16 = load i32, ptr %3, align 4, !tbaa !4
  %17 = call noundef nonnull align 4 dereferenceable(115) ptr @_ZN6ImSpanI16ImGuiTableColumnEixEi(ptr noundef nonnull align 8 dereferenceable(16) %15, i32 noundef %16)
  store ptr %17, ptr %5, align 8, !tbaa !259
  %18 = load ptr, ptr %5, align 8, !tbaa !259
  %19 = getelementptr inbounds nuw %struct.ImGuiTableColumn, ptr %18, i32 0, i32 27
  %20 = load i8, ptr %19, align 2, !tbaa !284, !range !64, !noundef !65
  %21 = trunc i8 %20 to i1
  br i1 %21, label %29, label %22

22:                                               ; preds = %13
  %23 = load ptr, ptr %5, align 8, !tbaa !259
  %24 = getelementptr inbounds nuw %struct.ImGuiTableColumn, ptr %23, i32 0, i32 0
  %25 = load i32, ptr %24, align 4, !tbaa !399
  %26 = and i32 %25, 8
  %27 = icmp ne i32 %26, 0
  br i1 %27, label %29, label %28

28:                                               ; preds = %22
  store i32 4, ptr %4, align 4
  br label %34

29:                                               ; preds = %22, %13
  %30 = load ptr, ptr %5, align 8, !tbaa !259
  %31 = getelementptr inbounds nuw %struct.ImGuiTableColumn, ptr %30, i32 0, i32 37
  store i8 1, ptr %31, align 4, !tbaa !407
  %32 = load ptr, ptr %5, align 8, !tbaa !259
  %33 = getelementptr inbounds nuw %struct.ImGuiTableColumn, ptr %32, i32 0, i32 36
  store i8 2, ptr %33, align 1, !tbaa !370
  store i32 0, ptr %4, align 4
  br label %34

34:                                               ; preds = %29, %28
  call void @llvm.lifetime.end.p0(i64 8, ptr %5) #8
  %35 = load i32, ptr %4, align 4
  switch i32 %35, label %41 [
    i32 0, label %36
    i32 4, label %37
  ]

36:                                               ; preds = %34
  br label %37

37:                                               ; preds = %36, %34
  %38 = load i32, ptr %3, align 4, !tbaa !4
  %39 = add nsw i32 %38, 1
  store i32 %39, ptr %3, align 4, !tbaa !4
  br label %6, !llvm.loop !581

40:                                               ; preds = %12
  ret void

41:                                               ; preds = %34
  unreachable
}