; Function Attrs: mustprogress nofree norecurse nosync nounwind memory(readwrite, inaccessiblemem: none) uwtable
define dso_local void @_ZN5ImGui26TableSetColumnWidthAutoAllEP10ImGuiTable(ptr noundef readonly captures(none) %0) local_unnamed_addr #8 {
  %2 = getelementptr inbounds nuw i8, ptr %0, i64 108
  %3 = load i32, ptr %2, align 4, !tbaa !207
  %4 = icmp sgt i32 %3, 0
  br i1 %4, label %.lr.ph, label %._crit_edge

.lr.ph:                                           ; preds = %1
  %5 = getelementptr inbounds nuw i8, ptr %0, i64 24
  %6 = load ptr, ptr %5, align 8, !tbaa !271
  %wide.trip.count = zext nneg i32 %3 to i64
  br label %7

._crit_edge:                                      ; preds = %18, %1
  ret void

7:                                                ; preds = %.lr.ph, %18
  %indvars.iv = phi i64 [ 0, %.lr.ph ], [ %indvars.iv.next, %18 ]
  %8 = getelementptr inbounds nuw %struct.ImGuiTableColumn, ptr %6, i64 %indvars.iv
  %9 = getelementptr inbounds nuw i8, ptr %8, i64 102
  %10 = load i8, ptr %9, align 2, !tbaa !307, !range !152, !noundef !153
  %11 = trunc nuw i8 %10 to i1
  br i1 %11, label %15, label %12

12:                                               ; preds = %7
  %13 = load i32, ptr %8, align 4, !tbaa !352
  %14 = and i32 %13, 8
  %.not = icmp eq i32 %14, 0
  br i1 %.not, label %18, label %15

15:                                               ; preds = %12, %7
  %16 = getelementptr inbounds nuw i8, ptr %8, i64 112
  store i8 1, ptr %16, align 4, !tbaa !365
  %17 = getelementptr inbounds nuw i8, ptr %8, i64 111
  store i8 2, ptr %17, align 1, !tbaa !335
  br label %18

18:                                               ; preds = %12, %15
  %indvars.iv.next = add nuw nsw i64 %indvars.iv, 1
  %exitcond.not = icmp eq i64 %indvars.iv.next, %wide.trip.count
  br i1 %exitcond.not, label %._crit_edge, label %7, !llvm.loop !443
}